target datalayout = "e-m:e-p270:32:32-p271:32:32-p272:64:64-i64:64-i128:128-f80:128-n8:16:32:64-S128"
target triple = "x86_64-pc-linux-gnu"

%struct.giop_object_key = type { ptr, i32 }

; Function Attrs: nounwind null_pointer_is_valid sspstrong uwtable
define internal i32 @giop_hash_objkey_hash(ptr noundef %0) #5 {
  %2 = alloca ptr, align 8
  %3 = alloca ptr, align 8
  %4 = alloca i32, align 4
  %5 = alloca i32, align 4
  store ptr %0, ptr %2, align 8
  call void @llvm.lifetime.start.p0(i64 8, ptr %3) #14
  %6 = load ptr, ptr %2, align 8
  store ptr %6, ptr %3, align 8
  call void @llvm.lifetime.start.p0(i64 4, ptr %4) #14
  call void @llvm.lifetime.start.p0(i64 4, ptr %5) #14
  store i32 0, ptr %5, align 4
  br label %7

7:                                                ; preds = %1
  br label %8

8:                                                ; preds = %7
  br label %9

9:                                                ; preds = %8
  store i32 0, ptr %4, align 4
  br label %10

10:                                               ; preds = %27, %9
  %11 = load i32, ptr %4, align 4
  %12 = load ptr, ptr %3, align 8
  %13 = getelementptr inbounds nuw %struct.giop_object_key, ptr %12, i32 0, i32 1
  %14 = load i32, ptr %13, align 8
  %15 = icmp ult i32 %11, %14
  br i1 %15, label %16, label %30

16:                                               ; preds = %10
  %17 = load ptr, ptr %3, align 8
  %18 = getelementptr inbounds nuw %struct.giop_object_key, ptr %17, i32 0, i32 0
  %19 = load ptr, ptr %18, align 8
  %20 = load i32, ptr %4, align 4
  %21 = zext i32 %20 to i64
  %22 = getelementptr i8, ptr %19, i64 %21
  %23 = load i8, ptr %22, align 1
  %24 = zext i8 %23 to i32
  %25 = load i32, ptr %5, align 4
  %26 = add i32 %25, %24
  store i32 %26, ptr %5, align 4
  br label %27

27:                                               ; preds = %16
  %28 = load i32, ptr %4, align 4
  %29 = add i32 %28, 1
  store i32 %29, ptr %4, align 4
  br label %10, !llvm.loop !41

30:                                               ; preds = %10
  %31 = load i32, ptr %5, align 4
  call void @llvm.lifetime.end.p0(i64 4, ptr %5) #14
  call void @llvm.lifetime.end.p0(i64 4, ptr %4) #14
  call void @llvm.lifetime.end.p0(i64 8, ptr %3) #14
  ret i32 %31
}