; Function Attrs: nofree norecurse nosync nounwind null_pointer_is_valid sspstrong memory(read, inaccessiblemem: none) uwtable
define internal i32 @giop_hash_objkey_hash(ptr noundef readonly captures(none) %0) #12 {
  %2 = getelementptr inbounds nuw i8, ptr %0, i64 8
  %3 = load i32, ptr %2, align 8
  %.not = icmp eq i32 %3, 0
  br i1 %.not, label %._crit_edge, label %.lr.ph

.lr.ph:                                           ; preds = %1
  %4 = load ptr, ptr %0, align 8
  %wide.trip.count = zext i32 %3 to i64
  br label %5

5:                                                ; preds = %.lr.ph, %5
  %indvars.iv = phi i64 [ 0, %.lr.ph ], [ %indvars.iv.next, %5 ]
  %.09 = phi i32 [ 0, %.lr.ph ], [ %9, %5 ]
  %6 = getelementptr i8, ptr %4, i64 %indvars.iv
  %7 = load i8, ptr %6, align 1
  %8 = zext i8 %7 to i32
  %9 = add i32 %.09, %8
  %indvars.iv.next = add nuw nsw i64 %indvars.iv, 1
  %exitcond.not = icmp eq i64 %indvars.iv.next, %wide.trip.count
  br i1 %exitcond.not, label %._crit_edge, label %5, !llvm.loop !66

._crit_edge:                                      ; preds = %5, %1
  %.0.lcssa = phi i32 [ 0, %1 ], [ %9, %5 ]
  ret i32 %.0.lcssa
}